; Function Attrs: nounwind uwtable
define hidden range(i32 -1, 1) i32 @_PyMutex_TryUnlock(ptr noundef %0) local_unnamed_addr #0 {
  %2 = load atomic i8, ptr %0 seq_cst, align 1
  %3 = zext i8 %2 to i32
  %4 = and i32 %3, 1
  %5 = icmp eq i32 %4, 0
  br i1 %5, label %_Py_atomic_compare_exchange_uint8.exit.thread, label %.lr.ph

.lr.ph:                                           ; preds = %1, %_Py_atomic_compare_exchange_uint8.exit
  %6 = phi i32 [ %13, %_Py_atomic_compare_exchange_uint8.exit ], [ %3, %1 ]
  %.069 = phi i8 [ %12, %_Py_atomic_compare_exchange_uint8.exit ], [ %2, %1 ]
  %7 = and i32 %6, 2
  %.not = icmp eq i32 %7, 0
  br i1 %.not, label %9, label %8

8:                                                ; preds = %.lr.ph
  tail call void @_PyParkingLot_Unpark(ptr noundef nonnull %0, ptr noundef nonnull @mutex_unpark, ptr noundef nonnull %0) #8
  br label %_Py_atomic_compare_exchange_uint8.exit.thread

9:                                                ; preds = %.lr.ph
  %10 = cmpxchg ptr %0, i8 %.069, i8 0 seq_cst seq_cst, align 1
  %11 = extractvalue { i8, i1 } %10, 1
  br i1 %11, label %_Py_atomic_compare_exchange_uint8.exit.thread, label %_Py_atomic_compare_exchange_uint8.exit

_Py_atomic_compare_exchange_uint8.exit:           ; preds = %9
  %12 = extractvalue { i8, i1 } %10, 0
  %13 = zext i8 %12 to i32
  %14 = and i32 %13, 1
  %15 = icmp eq i32 %14, 0
  br i1 %15, label %_Py_atomic_compare_exchange_uint8.exit.thread, label %.lr.ph

_Py_atomic_compare_exchange_uint8.exit.thread:    ; preds = %_Py_atomic_compare_exchange_uint8.exit, %9, %1, %8
  %.0 = phi i32 [ 0, %8 ], [ -1, %1 ], [ -1, %_Py_atomic_compare_exchange_uint8.exit ], [ 0, %9 ]
  ret i32 %.0
}